target datalayout = "e-m:e-p270:32:32-p271:32:32-p272:64:64-i64:64-i128:128-f80:128-n8:16:32:64-S128"
target triple = "x86_64-pc-linux-gnu"

%class.model_core = type { ptr, ptr, i32, [4 x i8], %class.obj_map, %class.obj_map.0, %class.ptr_vector, %class.ptr_vector, %class.ptr_vector }
%class.obj_map = type { %class.core_hashtable }
%class.core_hashtable = type <{ ptr, i32, i32, i32, [4 x i8] }>
%class.obj_map.0 = type { %class.core_hashtable.1 }
%class.core_hashtable.1 = type <{ ptr, i32, i32, i32, [4 x i8] }>
%class.ptr_vector = type { %class.vector }
%class.vector = type { ptr }
%"struct.obj_map<func_decl, func_interp *>::key_data" = type { ptr, ptr }
%"class.obj_map<func_decl, func_interp *>::obj_map_entry" = type { %"struct.obj_map<func_decl, func_interp *>::key_data" }
%class.ast = type { i32, i32, i32, i32 }

; Function Attrs: mustprogress uwtable
define linkonce_odr hidden noundef zeroext i1 @_ZN14core_hashtableIN7obj_mapI9func_declP11func_interpE13obj_map_entryE8obj_hashINS4_8key_dataEE10default_eqIS7_EE24insert_if_not_there_coreERKS7_RPS5_(ptr noundef nonnull align 8 dereferenceable(20) %0, ptr noundef nonnull align 8 dereferenceable(16) %1, ptr noundef nonnull align 8 dereferenceable(8) %2) #6 comdat align 2 {
  %4 = alloca ptr, align 8
  %5 = alloca ptr, align 8
  %6 = alloca ptr, align 8
  %7 = alloca %"struct.obj_map<func_decl, func_interp *>::key_data", align 8
  store ptr %0, ptr %4, align 8, !tbaa !93
  store ptr %1, ptr %5, align 8, !tbaa !36
  store ptr %2, ptr %6, align 8, !tbaa !97
  %8 = load ptr, ptr %4, align 8
  call void @llvm.lifetime.start.p0(i64 16, ptr %7) #3
  %9 = load ptr, ptr %5, align 8, !tbaa !36
  call void @llvm.memcpy.p0.p0.i64(ptr align 8 %7, ptr align 8 %9, i64 16, i1 false), !tbaa.struct !158
  %10 = load ptr, ptr %6, align 8, !tbaa !97
  %11 = call noundef zeroext i1 @_ZN14core_hashtableIN7obj_mapI9func_declP11func_interpE13obj_map_entryE8obj_hashINS4_8key_dataEE10default_eqIS7_EE24insert_if_not_there_coreEOS7_RPS5_(ptr noundef nonnull align 8 dereferenceable(20) %8, ptr noundef nonnull align 8 dereferenceable(16) %7, ptr noundef nonnull align 8 dereferenceable(8) %10)
  call void @llvm.lifetime.end.p0(i64 16, ptr %7) #3
  ret i1 %11
}

; Function Attrs: mustprogress nounwind uwtable
define linkonce_odr hidden void @_ZN3ast7inc_refEv(ptr noundef nonnull align 4 dereferenceable(16) %0) #4 comdat align 2 {
  %2 = alloca ptr, align 8
  store ptr %0, ptr %2, align 8, !tbaa !47
  %3 = load ptr, ptr %2, align 8
  %4 = getelementptr inbounds nuw %class.ast, ptr %3, i32 0, i32 2
  %5 = load i32, ptr %4, align 4, !tbaa !92
  %6 = add i32 %5, 1
  store i32 %6, ptr %4, align 4, !tbaa !92
  ret void
}

; Function Attrs: mustprogress nounwind uwtable
define linkonce_odr hidden noundef nonnull align 8 dereferenceable(16) ptr @_ZN7obj_mapI9func_declP11func_interpE13obj_map_entry8get_dataEv(ptr noundef nonnull align 8 dereferenceable(16) %0) #4 comdat align 2 {
  %2 = alloca ptr, align 8
  store ptr %0, ptr %2, align 8, !tbaa !87
  %3 = load ptr, ptr %2, align 8
  %4 = getelementptr inbounds nuw %"class.obj_map<func_decl, func_interp *>::obj_map_entry", ptr %3, i32 0, i32 0
  ret ptr %4
}

; Function Attrs: mustprogress uwtable
define linkonce_odr hidden noundef ptr @_ZN14core_hashtableIN7obj_mapI9func_declP11func_interpE13obj_map_entryE8obj_hashINS4_8key_dataEE10default_eqIS7_EE20insert_if_not_there2ERKS7_(ptr noundef nonnull align 8 dereferenceable(20) %0, ptr noundef nonnull align 8 dereferenceable(16) %1) #6 comdat align 2 {
  %3 = alloca ptr, align 8
  %4 = alloca ptr, align 8
  %5 = alloca ptr, align 8
  store ptr %0, ptr %3, align 8, !tbaa !93
  store ptr %1, ptr %4, align 8, !tbaa !36
  %6 = load ptr, ptr %3, align 8
  call void @llvm.lifetime.start.p0(i64 8, ptr %5) #3
  store ptr null, ptr %5, align 8, !tbaa !87
  %7 = load ptr, ptr %4, align 8, !tbaa !36
  %8 = call noundef zeroext i1 @_ZN14core_hashtableIN7obj_mapI9func_declP11func_interpE13obj_map_entryE8obj_hashINS4_8key_dataEE10default_eqIS7_EE24insert_if_not_there_coreERKS7_RPS5_(ptr noundef nonnull align 8 dereferenceable(20) %6, ptr noundef nonnull align 8 dereferenceable(16) %7, ptr noundef nonnull align 8 dereferenceable(8) %5)
  %9 = load ptr, ptr %5, align 8, !tbaa !87
  call void @llvm.lifetime.end.p0(i64 8, ptr %5) #3
  ret ptr %9
}

; Function Attrs: mustprogress nounwind uwtable
define linkonce_odr hidden void @_ZN7obj_mapI9func_declP11func_interpE8key_dataC2EPS0_RKS2_(ptr noundef nonnull align 8 dereferenceable(16) %0, ptr noundef %1, ptr noundef nonnull align 8 dereferenceable(8) %2) unnamed_addr #4 comdat align 2 {
  %4 = alloca ptr, align 8
  %5 = alloca ptr, align 8
  %6 = alloca ptr, align 8
  store ptr %0, ptr %4, align 8, !tbaa !36
  store ptr %1, ptr %5, align 8, !tbaa !56
  store ptr %2, ptr %6, align 8, !tbaa !84
  %7 = load ptr, ptr %4, align 8
  %8 = getelementptr inbounds nuw %"struct.obj_map<func_decl, func_interp *>::key_data", ptr %7, i32 0, i32 0
  %9 = load ptr, ptr %5, align 8, !tbaa !56
  store ptr %9, ptr %8, align 8, !tbaa !38
  %10 = getelementptr inbounds nuw %"struct.obj_map<func_decl, func_interp *>::key_data", ptr %7, i32 0, i32 1
  %11 = load ptr, ptr %6, align 8, !tbaa !84
  %12 = load ptr, ptr %11, align 8, !tbaa !53
  store ptr %12, ptr %10, align 8, !tbaa !41
  ret void
}

; Function Attrs: mustprogress uwtable
define linkonce_odr hidden void @_ZN11ast_manager7inc_refEP3ast(ptr noundef nonnull align 8 dereferenceable(976) %0, ptr noundef %1) #6 comdat align 2 {
  %3 = alloca ptr, align 8
  %4 = alloca ptr, align 8
  store ptr %0, ptr %3, align 8, !tbaa !46
  store ptr %1, ptr %4, align 8, !tbaa !47
  %5 = load ptr, ptr %4, align 8, !tbaa !47
  %6 = icmp ne ptr %5, null
  br i1 %6, label %7, label %9

7:                                                ; preds = %2
  %8 = load ptr, ptr %4, align 8, !tbaa !47
  call void @_ZN3ast7inc_refEv(ptr noundef nonnull align 4 dereferenceable(16) %8)
  br label %9

9:                                                ; preds = %7, %2
  ret void
}

; Function Attrs: mustprogress uwtable
define linkonce_odr hidden noundef nonnull align 8 dereferenceable(8) ptr @_ZN6vectorIP9func_declLb0EjE9push_backERKS1_(ptr noundef nonnull align 8 dereferenceable(8) %0, ptr noundef nonnull align 8 dereferenceable(8) %1) #6 comdat align 2 {
  %3 = alloca ptr, align 8
  %4 = alloca ptr, align 8
  store ptr %0, ptr %3, align 8, !tbaa !54
  store ptr %1, ptr %4, align 8, !tbaa !83
  %5 = load ptr, ptr %3, align 8
  %6 = getelementptr inbounds nuw %class.vector, ptr %5, i32 0, i32 0
  %7 = load ptr, ptr %6, align 8, !tbaa !82
  %8 = icmp eq ptr %7, null
  br i1 %8, label %19, label %9

9:                                                ; preds = %2
  %10 = getelementptr inbounds nuw %class.vector, ptr %5, i32 0, i32 0
  %11 = load ptr, ptr %10, align 8, !tbaa !82
  %12 = getelementptr inbounds i32, ptr %11, i64 -1
  %13 = load i32, ptr %12, align 4, !tbaa !72
  %14 = getelementptr inbounds nuw %class.vector, ptr %5, i32 0, i32 0
  %15 = load ptr, ptr %14, align 8, !tbaa !82
  %16 = getelementptr inbounds i32, ptr %15, i64 -2
  %17 = load i32, ptr %16, align 4, !tbaa !72
  %18 = icmp eq i32 %13, %17
  br i1 %18, label %19, label %20

19:                                               ; preds = %9, %2
  call void @_ZN6vectorIP9func_declLb0EjE13expand_vectorEv(ptr noundef nonnull align 8 dereferenceable(8) %5)
  br label %20

20:                                               ; preds = %19, %9
  %21 = getelementptr inbounds nuw %class.vector, ptr %5, i32 0, i32 0
  %22 = load ptr, ptr %21, align 8, !tbaa !82
  %23 = getelementptr inbounds nuw %class.vector, ptr %5, i32 0, i32 0
  %24 = load ptr, ptr %23, align 8, !tbaa !82
  %25 = getelementptr inbounds i32, ptr %24, i64 -1
  %26 = load i32, ptr %25, align 4, !tbaa !72
  %27 = zext i32 %26 to i64
  %28 = getelementptr inbounds nuw ptr, ptr %22, i64 %27
  %29 = load ptr, ptr %4, align 8, !tbaa !83
  %30 = load ptr, ptr %29, align 8, !tbaa !56
  store ptr %30, ptr %28, align 8, !tbaa !56
  %31 = getelementptr inbounds nuw %class.vector, ptr %5, i32 0, i32 0
  %32 = load ptr, ptr %31, align 8, !tbaa !82
  %33 = getelementptr inbounds i32, ptr %32, i64 -1
  %34 = load i32, ptr %33, align 4, !tbaa !72
  %35 = add i32 %34, 1
  store i32 %35, ptr %33, align 4, !tbaa !72
  ret ptr %5
}

; Function Attrs: mustprogress uwtable
define linkonce_odr hidden noundef nonnull align 8 dereferenceable(8) ptr @_ZN7obj_mapI9func_declP11func_interpE19insert_if_not_thereEPS0_RKS2_(ptr noundef nonnull align 8 dereferenceable(24) %0, ptr noundef %1, ptr noundef nonnull align 8 dereferenceable(8) %2) #6 comdat align 2 {
  %4 = alloca ptr, align 8
  %5 = alloca ptr, align 8
  %6 = alloca ptr, align 8
  %7 = alloca %"struct.obj_map<func_decl, func_interp *>::key_data", align 8
  store ptr %0, ptr %4, align 8, !tbaa !34
  store ptr %1, ptr %5, align 8, !tbaa !56
  store ptr %2, ptr %6, align 8, !tbaa !84
  %8 = load ptr, ptr %4, align 8
  %9 = getelementptr inbounds nuw %class.obj_map.0, ptr %8, i32 0, i32 0
  call void @llvm.lifetime.start.p0(i64 16, ptr %7) #3
  %10 = load ptr, ptr %5, align 8, !tbaa !56
  %11 = load ptr, ptr %6, align 8, !tbaa !84
  call void @_ZN7obj_mapI9func_declP11func_interpE8key_dataC2EPS0_RKS2_(ptr noundef nonnull align 8 dereferenceable(16) %7, ptr noundef %10, ptr noundef nonnull align 8 dereferenceable(8) %11)
  %12 = call noundef ptr @_ZN14core_hashtableIN7obj_mapI9func_declP11func_interpE13obj_map_entryE8obj_hashINS4_8key_dataEE10default_eqIS7_EE20insert_if_not_there2ERKS7_(ptr noundef nonnull align 8 dereferenceable(20) %9, ptr noundef nonnull align 8 dereferenceable(16) %7)
  %13 = call noundef nonnull align 8 dereferenceable(16) ptr @_ZN7obj_mapI9func_declP11func_interpE13obj_map_entry8get_dataEv(ptr noundef nonnull align 8 dereferenceable(16) %12)
  %14 = getelementptr inbounds nuw %"struct.obj_map<func_decl, func_interp *>::key_data", ptr %13, i32 0, i32 1
  call void @llvm.lifetime.end.p0(i64 16, ptr %7) #3
  ret ptr %14
}

; Function Attrs: mustprogress uwtable
define hidden noundef ptr @_ZN10model_core18update_func_interpEP9func_declP11func_interp(ptr noundef nonnull align 8 dereferenceable(96) %0, ptr noundef %1, ptr noundef %2) #6 align 2 {
  %4 = alloca ptr, align 8
  %5 = alloca ptr, align 8
  %6 = alloca ptr, align 8
  %7 = alloca ptr, align 8
  %8 = alloca ptr, align 8
  %9 = alloca ptr, align 8
  store ptr %0, ptr %4, align 8, !tbaa !3
  store ptr %1, ptr %5, align 8, !tbaa !56
  store ptr %2, ptr %6, align 8, !tbaa !53
  %10 = load ptr, ptr %4, align 8
  call void @llvm.lifetime.start.p0(i64 8, ptr %7) #3
  store ptr null, ptr %7, align 8, !tbaa !53
  call void @llvm.lifetime.start.p0(i64 8, ptr %8) #3
  %11 = getelementptr inbounds nuw %class.model_core, ptr %10, i32 0, i32 5
  %12 = load ptr, ptr %5, align 8, !tbaa !56
  call void @llvm.lifetime.start.p0(i64 8, ptr %9) #3
  store ptr null, ptr %9, align 8, !tbaa !53
  %13 = call noundef nonnull align 8 dereferenceable(8) ptr @_ZN7obj_mapI9func_declP11func_interpE19insert_if_not_thereEPS0_RKS2_(ptr noundef nonnull align 8 dereferenceable(24) %11, ptr noundef %12, ptr noundef nonnull align 8 dereferenceable(8) %9)
  call void @llvm.lifetime.end.p0(i64 8, ptr %9) #3
  store ptr %13, ptr %8, align 8, !tbaa !84
  %14 = load ptr, ptr %8, align 8, !tbaa !84
  %15 = load ptr, ptr %14, align 8, !tbaa !53
  %16 = icmp eq ptr %15, null
  br i1 %16, label %17, label %27

17:                                               ; preds = %3
  %18 = getelementptr inbounds nuw %class.model_core, ptr %10, i32 0, i32 6
  %19 = call noundef nonnull align 8 dereferenceable(8) ptr @_ZN6vectorIP9func_declLb0EjE9push_backERKS1_(ptr noundef nonnull align 8 dereferenceable(8) %18, ptr noundef nonnull align 8 dereferenceable(8) %5)
  %20 = getelementptr inbounds nuw %class.model_core, ptr %10, i32 0, i32 8
  %21 = call noundef nonnull align 8 dereferenceable(8) ptr @_ZN6vectorIP9func_declLb0EjE9push_backERKS1_(ptr noundef nonnull align 8 dereferenceable(8) %20, ptr noundef nonnull align 8 dereferenceable(8) %5)
  %22 = getelementptr inbounds nuw %class.model_core, ptr %10, i32 0, i32 1
  %23 = load ptr, ptr %22, align 8, !tbaa !14
  %24 = load ptr, ptr %5, align 8, !tbaa !56
  call void @_ZN11ast_manager7inc_refEP3ast(ptr noundef nonnull align 8 dereferenceable(976) %23, ptr noundef %24)
  %25 = load ptr, ptr %6, align 8, !tbaa !53
  %26 = load ptr, ptr %8, align 8, !tbaa !84
  store ptr %25, ptr %26, align 8, !tbaa !53
  br label %32

27:                                               ; preds = %3
  %28 = load ptr, ptr %8, align 8, !tbaa !84
  %29 = load ptr, ptr %28, align 8, !tbaa !53
  store ptr %29, ptr %7, align 8, !tbaa !53
  %30 = load ptr, ptr %6, align 8, !tbaa !53
  %31 = load ptr, ptr %8, align 8, !tbaa !84
  store ptr %30, ptr %31, align 8, !tbaa !53
  br label %32

32:                                               ; preds = %27, %17
  %33 = load ptr, ptr %7, align 8, !tbaa !53
  call void @llvm.lifetime.end.p0(i64 8, ptr %8) #3
  call void @llvm.lifetime.end.p0(i64 8, ptr %7) #3
  ret ptr %33
}