; Function Attrs: mustprogress uwtable
define hidden noundef ptr @_ZN10model_core18update_func_interpEP9func_declP11func_interp(ptr noundef nonnull align 8 dereferenceable(96) %0, ptr noundef %1, ptr noundef %2) local_unnamed_addr #9 align 2 {
  %4 = alloca %"struct.obj_map<func_decl, func_interp *>::key_data", align 8
  %5 = alloca ptr, align 8
  %6 = getelementptr inbounds nuw i8, ptr %0, i64 48
  call void @llvm.lifetime.start.p0(i64 8, ptr nonnull %5) #22
  store ptr null, ptr %5, align 8, !tbaa !66
  call void @llvm.lifetime.start.p0(i64 16, ptr nonnull %4) #22
  store ptr %1, ptr %4, align 8, !tbaa !65
  %.sroa.4.0..sroa_idx.i = getelementptr inbounds nuw i8, ptr %4, i64 8
  store ptr null, ptr %.sroa.4.0..sroa_idx.i, align 8, !tbaa !67
  %7 = call noundef zeroext i1 @_ZN14core_hashtableIN7obj_mapI9func_declP11func_interpE13obj_map_entryE8obj_hashINS4_8key_dataEE10default_eqIS7_EE24insert_if_not_there_coreEOS7_RPS5_(ptr noundef nonnull align 8 dereferenceable(24) %6, ptr noundef nonnull align 8 dereferenceable(16) %4, ptr noundef nonnull align 8 dereferenceable(8) %5)
  call void @llvm.lifetime.end.p0(i64 16, ptr nonnull %4) #22
  %8 = load ptr, ptr %5, align 8, !tbaa !66
  call void @llvm.lifetime.end.p0(i64 8, ptr nonnull %5) #22
  %9 = getelementptr inbounds nuw i8, ptr %8, i64 8
  %10 = load ptr, ptr %9, align 8, !tbaa !67
  %11 = icmp eq ptr %10, null
  br i1 %11, label %12, label %_ZN11ast_manager7inc_refEP3ast.exit

12:                                               ; preds = %3
  %13 = getelementptr inbounds nuw i8, ptr %0, i64 72
  %14 = load ptr, ptr %13, align 8, !tbaa !43
  %15 = icmp eq ptr %14, null
  br i1 %15, label %22, label %16

16:                                               ; preds = %12
  %17 = getelementptr inbounds i8, ptr %14, i64 -4
  %18 = load i32, ptr %17, align 4, !tbaa !64
  %19 = getelementptr inbounds i8, ptr %14, i64 -8
  %20 = load i32, ptr %19, align 4, !tbaa !64
  %21 = icmp eq i32 %18, %20
  br i1 %21, label %22, label %_ZN6vectorIP9func_declLb0EjE9push_backERKS1_.exit

22:                                               ; preds = %16, %12
  call void @_ZN6vectorIP9func_declLb0EjE13expand_vectorEv(ptr noundef nonnull align 8 dereferenceable(8) %13)
  %.pre.i = load ptr, ptr %13, align 8, !tbaa !43
  %.phi.trans.insert.i = getelementptr inbounds i8, ptr %.pre.i, i64 -4
  %.pre2.i = load i32, ptr %.phi.trans.insert.i, align 4, !tbaa !64
  br label %_ZN6vectorIP9func_declLb0EjE9push_backERKS1_.exit

_ZN6vectorIP9func_declLb0EjE9push_backERKS1_.exit: ; preds = %16, %22
  %23 = phi i32 [ %.pre2.i, %22 ], [ %18, %16 ]
  %24 = phi ptr [ %.pre.i, %22 ], [ %14, %16 ]
  %25 = getelementptr inbounds i8, ptr %24, i64 -4
  %26 = zext i32 %23 to i64
  %27 = getelementptr inbounds nuw ptr, ptr %24, i64 %26
  store ptr %1, ptr %27, align 8, !tbaa !65
  %28 = add i32 %23, 1
  store i32 %28, ptr %25, align 4, !tbaa !64
  %29 = getelementptr inbounds nuw i8, ptr %0, i64 88
  %30 = load ptr, ptr %29, align 8, !tbaa !43
  %31 = icmp eq ptr %30, null
  br i1 %31, label %38, label %32

32:                                               ; preds = %_ZN6vectorIP9func_declLb0EjE9push_backERKS1_.exit
  %33 = getelementptr inbounds i8, ptr %30, i64 -4
  %34 = load i32, ptr %33, align 4, !tbaa !64
  %35 = getelementptr inbounds i8, ptr %30, i64 -8
  %36 = load i32, ptr %35, align 4, !tbaa !64
  %37 = icmp eq i32 %34, %36
  br i1 %37, label %38, label %_ZN6vectorIP9func_declLb0EjE9push_backERKS1_.exit12

38:                                               ; preds = %32, %_ZN6vectorIP9func_declLb0EjE9push_backERKS1_.exit
  call void @_ZN6vectorIP9func_declLb0EjE13expand_vectorEv(ptr noundef nonnull align 8 dereferenceable(8) %29)
  %.pre.i9 = load ptr, ptr %29, align 8, !tbaa !43
  %.phi.trans.insert.i10 = getelementptr inbounds i8, ptr %.pre.i9, i64 -4
  %.pre2.i11 = load i32, ptr %.phi.trans.insert.i10, align 4, !tbaa !64
  br label %_ZN6vectorIP9func_declLb0EjE9push_backERKS1_.exit12

_ZN6vectorIP9func_declLb0EjE9push_backERKS1_.exit12: ; preds = %32, %38
  %39 = phi i32 [ %.pre2.i11, %38 ], [ %34, %32 ]
  %40 = phi ptr [ %.pre.i9, %38 ], [ %30, %32 ]
  %41 = getelementptr inbounds i8, ptr %40, i64 -4
  %42 = zext i32 %39 to i64
  %43 = getelementptr inbounds nuw ptr, ptr %40, i64 %42
  store ptr %1, ptr %43, align 8, !tbaa !65
  %44 = add i32 %39, 1
  store i32 %44, ptr %41, align 4, !tbaa !64
  %.not.i = icmp eq ptr %1, null
  br i1 %.not.i, label %_ZN11ast_manager7inc_refEP3ast.exit, label %45

45:                                               ; preds = %_ZN6vectorIP9func_declLb0EjE9push_backERKS1_.exit12
  %46 = getelementptr inbounds nuw i8, ptr %1, i64 8
  %47 = load i32, ptr %46, align 4, !tbaa !40
  %48 = add i32 %47, 1
  store i32 %48, ptr %46, align 4, !tbaa !40
  br label %_ZN11ast_manager7inc_refEP3ast.exit

_ZN11ast_manager7inc_refEP3ast.exit:              ; preds = %45, %_ZN6vectorIP9func_declLb0EjE9push_backERKS1_.exit12, %3
  store ptr %2, ptr %9, align 8, !tbaa !67
  ret ptr %10
}